
rv32uf-p-bpu_wait:     file format elf32-littleriscv


Disassembly of section .text.init:

80000000 <_start>:
80000000:	a225                	j	80000128 <reset_vector>
80000002:	0001                	nop

80000004 <trap_vector>:
80000004:	34051073          	csrw	mscratch,a0
80000008:	00002517          	auipc	a0,0x2
8000000c:	ff850513          	addi	a0,a0,-8 # 80002000 <test_trap_data>
80000010:	01e52023          	sw	t5,0(a0)
80000014:	01f52223          	sw	t6,4(a0)
80000018:	34202f73          	csrr	t5,mcause
8000001c:	020f4f63          	bltz	t5,8000005a <other_interrupts>
80000020:	4fa1                	li	t6,8
80000022:	05ff0d63          	beq	t5,t6,8000007c <write_tohost>
80000026:	4fa5                	li	t6,9
80000028:	05ff0a63          	beq	t5,t6,8000007c <write_tohost>
8000002c:	4fad                	li	t6,11
8000002e:	05ff0763          	beq	t5,t6,8000007c <write_tohost>
80000032:	4f85                	li	t6,1
80000034:	0bff0063          	beq	t5,t6,800000d4 <ifetch_error_handler>
80000038:	4f95                	li	t6,5
8000003a:	0bff0b63          	beq	t5,t6,800000f0 <load_error_handler>
8000003e:	4f9d                	li	t6,7
80000040:	0dff0663          	beq	t5,t6,8000010c <store_error_handler>
80000044:	00000f13          	li	t5,0
80000048:	000f0363          	beqz	t5,8000004e <trap_vector+0x4a>
8000004c:	8f02                	jr	t5
8000004e:	34202f73          	csrr	t5,mcause
80000052:	000f5363          	bgez	t5,80000058 <handle_exception>
80000056:	a009                	j	80000058 <handle_exception>

80000058 <handle_exception>:
80000058:	a005                	j	80000078 <other_interrupts+0x1e>

8000005a <other_interrupts>:
8000005a:	80000fb7          	lui	t6,0x80000
8000005e:	0f8d                	addi	t6,t6,3
80000060:	05ff0263          	beq	t5,t6,800000a4 <sft_irq_handler>
80000064:	80000fb7          	lui	t6,0x80000
80000068:	0f9d                	addi	t6,t6,7
8000006a:	05ff0963          	beq	t5,t6,800000bc <tmr_irq_handler>
8000006e:	80000fb7          	lui	t6,0x80000
80000072:	0fad                	addi	t6,t6,11
80000074:	01ff0c63          	beq	t5,t6,8000008c <ext_irq_handler>
80000078:	5391e193          	ori	gp,gp,1337

8000007c <write_tohost>:
8000007c:	4521                	li	a0,8
8000007e:	30052073          	csrs	mstatus,a0
80000082:	00001f17          	auipc	t5,0x1
80000086:	f63f2f23          	sw	gp,-130(t5) # 80001000 <tohost>
8000008a:	bfcd                	j	8000007c <write_tohost>

8000008c <ext_irq_handler>:
8000008c:	00002517          	auipc	a0,0x2
80000090:	f7450513          	addi	a0,a0,-140 # 80002000 <test_trap_data>
80000094:	00052f03          	lw	t5,0(a0)
80000098:	00452f83          	lw	t6,4(a0)
8000009c:	34002573          	csrr	a0,mscratch
800000a0:	30200073          	mret

800000a4 <sft_irq_handler>:
800000a4:	00002517          	auipc	a0,0x2
800000a8:	f5c50513          	addi	a0,a0,-164 # 80002000 <test_trap_data>
800000ac:	00052f03          	lw	t5,0(a0)
800000b0:	00452f83          	lw	t6,4(a0)
800000b4:	34002573          	csrr	a0,mscratch
800000b8:	30200073          	mret

800000bc <tmr_irq_handler>:
800000bc:	00002517          	auipc	a0,0x2
800000c0:	f4450513          	addi	a0,a0,-188 # 80002000 <test_trap_data>
800000c4:	00052f03          	lw	t5,0(a0)
800000c8:	00452f83          	lw	t6,4(a0)
800000cc:	34002573          	csrr	a0,mscratch
800000d0:	30200073          	mret

800000d4 <ifetch_error_handler>:
800000d4:	00002517          	auipc	a0,0x2
800000d8:	f2c50513          	addi	a0,a0,-212 # 80002000 <test_trap_data>
800000dc:	00052f03          	lw	t5,0(a0)
800000e0:	00452f83          	lw	t6,4(a0)
800000e4:	34302573          	csrr	a0,mtval
800000e8:	34002573          	csrr	a0,mscratch
800000ec:	30200073          	mret

800000f0 <load_error_handler>:
800000f0:	00002517          	auipc	a0,0x2
800000f4:	f1050513          	addi	a0,a0,-240 # 80002000 <test_trap_data>
800000f8:	00052f03          	lw	t5,0(a0)
800000fc:	00452f83          	lw	t6,4(a0)
80000100:	34302573          	csrr	a0,mtval
80000104:	34002573          	csrr	a0,mscratch
80000108:	30200073          	mret

8000010c <store_error_handler>:
8000010c:	00002517          	auipc	a0,0x2
80000110:	ef450513          	addi	a0,a0,-268 # 80002000 <test_trap_data>
80000114:	00052f03          	lw	t5,0(a0)
80000118:	00452f83          	lw	t6,4(a0)
8000011c:	34302573          	csrr	a0,mtval
80000120:	34002573          	csrr	a0,mscratch
80000124:	30200073          	mret

80000128 <reset_vector>:
80000128:	00000f13          	li	t5,0
8000012c:	00000f93          	li	t6,0
80000130:	f1402573          	csrr	a0,mhartid
80000134:	e101                	bnez	a0,80000134 <reset_vector+0xc>
80000136:	4181                	li	gp,0
80000138:	00000297          	auipc	t0,0x0
8000013c:	ecc28293          	addi	t0,t0,-308 # 80000004 <trap_vector>
80000140:	4521                	li	a0,8
80000142:	30052073          	csrs	mstatus,a0
80000146:	fff00513          	li	a0,-1
8000014a:	30452073          	csrs	mie,a0
8000014e:	30529073          	csrw	mtvec,t0

80000152 <post_mtvec>:
80000152:	00000293          	li	t0,0
80000156:	00028d63          	beqz	t0,80000170 <post_mtvec+0x1e>
8000015a:	10529073          	csrw	stvec,t0
8000015e:	62ad                	lui	t0,0xb
80000160:	10928293          	addi	t0,t0,265 # b109 <_start-0x7fff4ef7>
80000164:	30229073          	csrw	medeleg,t0
80000168:	30202373          	csrr	t1,medeleg
8000016c:	ee6296e3          	bne	t0,t1,80000058 <handle_exception>
80000170:	30005073          	csrwi	mstatus,0
80000174:	08000513          	li	a0,128
80000178:	30052073          	csrs	mstatus,a0
8000017c:	4501                	li	a0,0
8000017e:	bfc51073          	csrw	0xbfc,a0
80000182:	0000100f          	fence.i
80000186:	6285                	lui	t0,0x1
80000188:	a0028293          	addi	t0,t0,-1536 # a00 <_start-0x7ffff600>

8000018c <waitloop1>:
8000018c:	12fd                	addi	t0,t0,-1
8000018e:	fe029fe3          	bnez	t0,8000018c <waitloop1>
80000192:	100083b7          	lui	t2,0x10008
80000196:	03a1                	addi	t2,t2,8
80000198:	0003a283          	lw	t0,0(t2) # 10008000 <_start-0x6fff8000>
8000019c:	00040337          	lui	t1,0x40
800001a0:	fff34313          	not	t1,t1
800001a4:	0062f2b3          	and	t0,t0,t1
800001a8:	0053a023          	sw	t0,0(t2)
800001ac:	40000293          	li	t0,1024

800001b0 <waitloop2>:
800001b0:	12fd                	addi	t0,t0,-1
800001b2:	0003ae03          	lw	t3,0(t2)
800001b6:	fe029de3          	bnez	t0,800001b0 <waitloop2>
800001ba:	0003a283          	lw	t0,0(t2)
800001be:	00040337          	lui	t1,0x40
800001c2:	0062e2b3          	or	t0,t0,t1
800001c6:	0053a023          	sw	t0,0(t2)
800001ca:	0003a283          	lw	t0,0(t2)
800001ce:	4305                	li	t1,1
800001d0:	0062e2b3          	or	t0,t0,t1
800001d4:	0053a023          	sw	t0,0(t2)
800001d8:	0003a283          	lw	t0,0(t2)
800001dc:	02000313          	li	t1,32
800001e0:	0062e2b3          	or	t0,t0,t1
800001e4:	0053a023          	sw	t0,0(t2)
800001e8:	6285                	lui	t0,0x1
800001ea:	a0028293          	addi	t0,t0,-1536 # a00 <_start-0x7ffff600>

800001ee <waitloop3>:
800001ee:	12fd                	addi	t0,t0,-1
800001f0:	fe029fe3          	bnez	t0,800001ee <waitloop3>
800001f4:	0003a283          	lw	t0,0(t2)
800001f8:	00040337          	lui	t1,0x40
800001fc:	fff34313          	not	t1,t1
80000200:	0062f2b3          	and	t0,t0,t1
80000204:	0053a023          	sw	t0,0(t2)
80000208:	10000293          	li	t0,256

8000020c <waitloop4>:
8000020c:	12fd                	addi	t0,t0,-1
8000020e:	fe029fe3          	bnez	t0,8000020c <waitloop4>
80000212:	100083b7          	lui	t2,0x10008
80000216:	03b1                	addi	t2,t2,12
80000218:	0003a283          	lw	t0,0(t2) # 10008000 <_start-0x6fff8000>
8000021c:	10000313          	li	t1,256
80000220:	fff34313          	not	t1,t1
80000224:	0062f2b3          	and	t0,t0,t1
80000228:	4309                	li	t1,2
8000022a:	0062e2b3          	or	t0,t0,t1
8000022e:	0053a023          	sw	t0,0(t2)
80000232:	40000293          	li	t0,1024
80000236:	6509                	lui	a0,0x2
80000238:	80050513          	addi	a0,a0,-2048 # 1800 <_start-0x7fffe800>
8000023c:	30052073          	csrs	mstatus,a0
80000240:	00000297          	auipc	t0,0x0
80000244:	01428293          	addi	t0,t0,20 # 80000254 <waitloop4+0x48>
80000248:	34129073          	csrw	mepc,t0
8000024c:	f1402573          	csrr	a0,mhartid
80000250:	30200073          	mret
80000254:	00002f17          	auipc	t5,0x2
80000258:	db4f0f13          	addi	t5,t5,-588 # 80002008 <test_bpu_wait_data>
8000025c:	00002f97          	auipc	t6,0x2
80000260:	dacf8f93          	addi	t6,t6,-596 # 80002008 <test_bpu_wait_data>
80000264:	00002517          	auipc	a0,0x2
80000268:	da450513          	addi	a0,a0,-604 # 80002008 <test_bpu_wait_data>
8000026c:	00000597          	auipc	a1,0x0
80000270:	01658593          	addi	a1,a1,22 # 80000282 <waitloop4+0x76>
80000274:	c10c                	sw	a1,0(a0)
80000276:	10500073          	wfi
8000027a:	00052303          	lw	t1,0(a0)
8000027e:	000302e7          	jalr	t0,t1 # 40000 <_start-0x7ffc0000>
80000282:	00000597          	auipc	a1,0x0
80000286:	01658593          	addi	a1,a1,22 # 80000298 <waitloop4+0x8c>
8000028a:	c10c                	sw	a1,0(a0)
8000028c:	00052303          	lw	t1,0(a0)
80000290:	10500073          	wfi
80000294:	000302e7          	jalr	t0,t1
80000298:	00000597          	auipc	a1,0x0
8000029c:	01658593          	addi	a1,a1,22 # 800002ae <waitloop4+0xa2>
800002a0:	c10c                	sw	a1,0(a0)
800002a2:	00052303          	lw	t1,0(a0)
800002a6:	000302e7          	jalr	t0,t1
800002aa:	10500073          	wfi
800002ae:	00000597          	auipc	a1,0x0
800002b2:	01658593          	addi	a1,a1,22 # 800002c4 <waitloop4+0xb8>
800002b6:	c10c                	sw	a1,0(a0)
800002b8:	00052303          	lw	t1,0(a0)
800002bc:	000302e7          	jalr	t0,t1
800002c0:	10500073          	wfi
800002c4:	00000597          	auipc	a1,0x0
800002c8:	01258593          	addi	a1,a1,18 # 800002d6 <waitloop4+0xca>
800002cc:	c10c                	sw	a1,0(a0)
800002ce:	00052303          	lw	t1,0(a0)
800002d2:	000302e7          	jalr	t0,t1
800002d6:	00000597          	auipc	a1,0x0
800002da:	01a58593          	addi	a1,a1,26 # 800002f0 <waitloop4+0xe4>
800002de:	c10c                	sw	a1,0(a0)
800002e0:	10500073          	wfi
800002e4:	00052303          	lw	t1,0(a0)
800002e8:	000302e7          	jalr	t0,t1
800002ec:	10500073          	wfi
800002f0:	00000597          	auipc	a1,0x0
800002f4:	01258593          	addi	a1,a1,18 # 80000302 <waitloop4+0xf6>
800002f8:	c10c                	sw	a1,0(a0)
800002fa:	00052303          	lw	t1,0(a0)
800002fe:	000302e7          	jalr	t0,t1
80000302:	00000597          	auipc	a1,0x0
80000306:	01658593          	addi	a1,a1,22 # 80000318 <waitloop4+0x10c>
8000030a:	c10c                	sw	a1,0(a0)
8000030c:	10500073          	wfi
80000310:	00052303          	lw	t1,0(a0)
80000314:	000302e7          	jalr	t0,t1
80000318:	30102673          	csrr	a2,misa
8000031c:	8a05                	andi	a2,a2,1
8000031e:	48060e63          	beqz	a2,800007ba <waitloop4+0x5ae>
80000322:	00000597          	auipc	a1,0x0
80000326:	01258593          	addi	a1,a1,18 # 80000334 <waitloop4+0x128>
8000032a:	c10c                	sw	a1,0(a0)
8000032c:	0055232f          	amoadd.w	t1,t0,(a0)
80000330:	000302e7          	jalr	t0,t1
80000334:	00000597          	auipc	a1,0x0
80000338:	01258593          	addi	a1,a1,18 # 80000346 <waitloop4+0x13a>
8000033c:	c10c                	sw	a1,0(a0)
8000033e:	0055232f          	amoadd.w	t1,t0,(a0)
80000342:	000302e7          	jalr	t0,t1
80000346:	00000597          	auipc	a1,0x0
8000034a:	01258593          	addi	a1,a1,18 # 80000358 <waitloop4+0x14c>
8000034e:	c10c                	sw	a1,0(a0)
80000350:	0055232f          	amoadd.w	t1,t0,(a0)
80000354:	000302e7          	jalr	t0,t1
80000358:	00000597          	auipc	a1,0x0
8000035c:	01258593          	addi	a1,a1,18 # 8000036a <waitloop4+0x15e>
80000360:	c10c                	sw	a1,0(a0)
80000362:	0055232f          	amoadd.w	t1,t0,(a0)
80000366:	000302e7          	jalr	t0,t1
8000036a:	00000597          	auipc	a1,0x0
8000036e:	01258593          	addi	a1,a1,18 # 8000037c <waitloop4+0x170>
80000372:	c10c                	sw	a1,0(a0)
80000374:	0055232f          	amoadd.w	t1,t0,(a0)
80000378:	000302e7          	jalr	t0,t1
8000037c:	00000597          	auipc	a1,0x0
80000380:	01258593          	addi	a1,a1,18 # 8000038e <waitloop4+0x182>
80000384:	c10c                	sw	a1,0(a0)
80000386:	0055232f          	amoadd.w	t1,t0,(a0)
8000038a:	000302e7          	jalr	t0,t1
8000038e:	00000597          	auipc	a1,0x0
80000392:	01258593          	addi	a1,a1,18 # 800003a0 <waitloop4+0x194>
80000396:	c10c                	sw	a1,0(a0)
80000398:	0055232f          	amoadd.w	t1,t0,(a0)
8000039c:	000302e7          	jalr	t0,t1
800003a0:	00000597          	auipc	a1,0x0
800003a4:	01258593          	addi	a1,a1,18 # 800003b2 <waitloop4+0x1a6>
800003a8:	c10c                	sw	a1,0(a0)
800003aa:	0055232f          	amoadd.w	t1,t0,(a0)
800003ae:	000302e7          	jalr	t0,t1
800003b2:	00000597          	auipc	a1,0x0
800003b6:	01258593          	addi	a1,a1,18 # 800003c4 <waitloop4+0x1b8>
800003ba:	c10c                	sw	a1,0(a0)
800003bc:	0055232f          	amoadd.w	t1,t0,(a0)
800003c0:	000302e7          	jalr	t0,t1
800003c4:	00000597          	auipc	a1,0x0
800003c8:	01258593          	addi	a1,a1,18 # 800003d6 <waitloop4+0x1ca>
800003cc:	c10c                	sw	a1,0(a0)
800003ce:	0055232f          	amoadd.w	t1,t0,(a0)
800003d2:	000302e7          	jalr	t0,t1
800003d6:	00000597          	auipc	a1,0x0
800003da:	01658593          	addi	a1,a1,22 # 800003ec <waitloop4+0x1e0>
800003de:	c10c                	sw	a1,0(a0)
800003e0:	0055232f          	amoadd.w	t1,t0,(a0)
800003e4:	000302e7          	jalr	t0,t1
800003e8:	10500073          	wfi
800003ec:	00000597          	auipc	a1,0x0
800003f0:	01258593          	addi	a1,a1,18 # 800003fe <waitloop4+0x1f2>
800003f4:	c10c                	sw	a1,0(a0)
800003f6:	0055232f          	amoadd.w	t1,t0,(a0)
800003fa:	000302e7          	jalr	t0,t1
800003fe:	00000597          	auipc	a1,0x0
80000402:	01258593          	addi	a1,a1,18 # 80000410 <waitloop4+0x204>
80000406:	c10c                	sw	a1,0(a0)
80000408:	0055232f          	amoadd.w	t1,t0,(a0)
8000040c:	000302e7          	jalr	t0,t1
80000410:	00000597          	auipc	a1,0x0
80000414:	01258593          	addi	a1,a1,18 # 80000422 <waitloop4+0x216>
80000418:	c10c                	sw	a1,0(a0)
8000041a:	0055232f          	amoadd.w	t1,t0,(a0)
8000041e:	000302e7          	jalr	t0,t1
80000422:	00000597          	auipc	a1,0x0
80000426:	01658593          	addi	a1,a1,22 # 80000438 <waitloop4+0x22c>
8000042a:	10500073          	wfi
8000042e:	c10c                	sw	a1,0(a0)
80000430:	0055232f          	amoadd.w	t1,t0,(a0)
80000434:	000302e7          	jalr	t0,t1
80000438:	00000597          	auipc	a1,0x0
8000043c:	01258593          	addi	a1,a1,18 # 8000044a <waitloop4+0x23e>
80000440:	c10c                	sw	a1,0(a0)
80000442:	0055232f          	amoadd.w	t1,t0,(a0)
80000446:	000302e7          	jalr	t0,t1
8000044a:	00000597          	auipc	a1,0x0
8000044e:	01258593          	addi	a1,a1,18 # 8000045c <waitloop4+0x250>
80000452:	c10c                	sw	a1,0(a0)
80000454:	0055232f          	amoadd.w	t1,t0,(a0)
80000458:	000302e7          	jalr	t0,t1
8000045c:	00000597          	auipc	a1,0x0
80000460:	01658593          	addi	a1,a1,22 # 80000472 <waitloop4+0x266>
80000464:	c10c                	sw	a1,0(a0)
80000466:	0055232f          	amoadd.w	t1,t0,(a0)
8000046a:	10500073          	wfi
8000046e:	000302e7          	jalr	t0,t1
80000472:	00000597          	auipc	a1,0x0
80000476:	01258593          	addi	a1,a1,18 # 80000484 <waitloop4+0x278>
8000047a:	c10c                	sw	a1,0(a0)
8000047c:	0055232f          	amoadd.w	t1,t0,(a0)
80000480:	000302e7          	jalr	t0,t1
80000484:	00000597          	auipc	a1,0x0
80000488:	01a58593          	addi	a1,a1,26 # 8000049e <waitloop4+0x292>
8000048c:	c10c                	sw	a1,0(a0)
8000048e:	10500073          	wfi
80000492:	0055232f          	amoadd.w	t1,t0,(a0)
80000496:	10500073          	wfi
8000049a:	000302e7          	jalr	t0,t1
8000049e:	00000597          	auipc	a1,0x0
800004a2:	01a58593          	addi	a1,a1,26 # 800004b8 <waitloop4+0x2ac>
800004a6:	10500073          	wfi
800004aa:	c10c                	sw	a1,0(a0)
800004ac:	0055232f          	amoadd.w	t1,t0,(a0)
800004b0:	10500073          	wfi
800004b4:	000302e7          	jalr	t0,t1
800004b8:	10500073          	wfi
800004bc:	00000597          	auipc	a1,0x0
800004c0:	01258593          	addi	a1,a1,18 # 800004ce <waitloop4+0x2c2>
800004c4:	c10c                	sw	a1,0(a0)
800004c6:	0055232f          	amoadd.w	t1,t0,(a0)
800004ca:	000302e7          	jalr	t0,t1
800004ce:	10500073          	wfi
800004d2:	00000597          	auipc	a1,0x0
800004d6:	01258593          	addi	a1,a1,18 # 800004e4 <waitloop4+0x2d8>
800004da:	c10c                	sw	a1,0(a0)
800004dc:	0055232f          	amoadd.w	t1,t0,(a0)
800004e0:	000302e7          	jalr	t0,t1
800004e4:	00000597          	auipc	a1,0x0
800004e8:	01658593          	addi	a1,a1,22 # 800004fa <waitloop4+0x2ee>
800004ec:	10500073          	wfi
800004f0:	c10c                	sw	a1,0(a0)
800004f2:	0055232f          	amoadd.w	t1,t0,(a0)
800004f6:	000302e7          	jalr	t0,t1
800004fa:	10500073          	wfi
800004fe:	00000597          	auipc	a1,0x0
80000502:	01258593          	addi	a1,a1,18 # 80000510 <waitloop4+0x304>
80000506:	c10c                	sw	a1,0(a0)
80000508:	0055232f          	amoadd.w	t1,t0,(a0)
8000050c:	000302e7          	jalr	t0,t1
80000510:	10500073          	wfi
80000514:	00000597          	auipc	a1,0x0
80000518:	01258593          	addi	a1,a1,18 # 80000526 <waitloop4+0x31a>
8000051c:	c10c                	sw	a1,0(a0)
8000051e:	0055232f          	amoadd.w	t1,t0,(a0)
80000522:	000302e7          	jalr	t0,t1
80000526:	10500073          	wfi
8000052a:	00000597          	auipc	a1,0x0
8000052e:	01658593          	addi	a1,a1,22 # 80000540 <waitloop4+0x334>
80000532:	c10c                	sw	a1,0(a0)
80000534:	10500073          	wfi
80000538:	0055232f          	amoadd.w	t1,t0,(a0)
8000053c:	000302e7          	jalr	t0,t1
80000540:	00000597          	auipc	a1,0x0
80000544:	01658593          	addi	a1,a1,22 # 80000556 <waitloop4+0x34a>
80000548:	c10c                	sw	a1,0(a0)
8000054a:	10500073          	wfi
8000054e:	0055232f          	amoadd.w	t1,t0,(a0)
80000552:	000302e7          	jalr	t0,t1
80000556:	00000597          	auipc	a1,0x0
8000055a:	01658593          	addi	a1,a1,22 # 8000056c <waitloop4+0x360>
8000055e:	c10c                	sw	a1,0(a0)
80000560:	0055232f          	amoadd.w	t1,t0,(a0)
80000564:	10500073          	wfi
80000568:	000302e7          	jalr	t0,t1
8000056c:	00000597          	auipc	a1,0x0
80000570:	01658593          	addi	a1,a1,22 # 80000582 <waitloop4+0x376>
80000574:	c10c                	sw	a1,0(a0)
80000576:	10500073          	wfi
8000057a:	0055232f          	amoadd.w	t1,t0,(a0)
8000057e:	000302e7          	jalr	t0,t1
80000582:	00000597          	auipc	a1,0x0
80000586:	01258593          	addi	a1,a1,18 # 80000594 <waitloop4+0x388>
8000058a:	c10c                	sw	a1,0(a0)
8000058c:	0055232f          	amoadd.w	t1,t0,(a0)
80000590:	000302e7          	jalr	t0,t1
80000594:	00000597          	auipc	a1,0x0
80000598:	01258593          	addi	a1,a1,18 # 800005a6 <waitloop4+0x39a>
8000059c:	c10c                	sw	a1,0(a0)
8000059e:	0055232f          	amoadd.w	t1,t0,(a0)
800005a2:	000302e7          	jalr	t0,t1
800005a6:	00000597          	auipc	a1,0x0
800005aa:	01258593          	addi	a1,a1,18 # 800005b8 <waitloop4+0x3ac>
800005ae:	c10c                	sw	a1,0(a0)
800005b0:	0055232f          	amoadd.w	t1,t0,(a0)
800005b4:	000302e7          	jalr	t0,t1
800005b8:	00000597          	auipc	a1,0x0
800005bc:	01258593          	addi	a1,a1,18 # 800005ca <waitloop4+0x3be>
800005c0:	c10c                	sw	a1,0(a0)
800005c2:	0055232f          	amoadd.w	t1,t0,(a0)
800005c6:	000302e7          	jalr	t0,t1
800005ca:	00000597          	auipc	a1,0x0
800005ce:	01258593          	addi	a1,a1,18 # 800005dc <waitloop4+0x3d0>
800005d2:	c10c                	sw	a1,0(a0)
800005d4:	0055232f          	amoadd.w	t1,t0,(a0)
800005d8:	000302e7          	jalr	t0,t1
800005dc:	00000597          	auipc	a1,0x0
800005e0:	01258593          	addi	a1,a1,18 # 800005ee <waitloop4+0x3e2>
800005e4:	c10c                	sw	a1,0(a0)
800005e6:	0055232f          	amoadd.w	t1,t0,(a0)
800005ea:	000302e7          	jalr	t0,t1
800005ee:	00000597          	auipc	a1,0x0
800005f2:	01258593          	addi	a1,a1,18 # 80000600 <waitloop4+0x3f4>
800005f6:	c10c                	sw	a1,0(a0)
800005f8:	0055232f          	amoadd.w	t1,t0,(a0)
800005fc:	000302e7          	jalr	t0,t1
80000600:	00000597          	auipc	a1,0x0
80000604:	01258593          	addi	a1,a1,18 # 80000612 <waitloop4+0x406>
80000608:	c10c                	sw	a1,0(a0)
8000060a:	0055232f          	amoadd.w	t1,t0,(a0)
8000060e:	000302e7          	jalr	t0,t1
80000612:	00000597          	auipc	a1,0x0
80000616:	01258593          	addi	a1,a1,18 # 80000624 <waitloop4+0x418>
8000061a:	c10c                	sw	a1,0(a0)
8000061c:	0055232f          	amoadd.w	t1,t0,(a0)
80000620:	000302e7          	jalr	t0,t1
80000624:	00000597          	auipc	a1,0x0
80000628:	01258593          	addi	a1,a1,18 # 80000636 <waitloop4+0x42a>
8000062c:	c10c                	sw	a1,0(a0)
8000062e:	0055232f          	amoadd.w	t1,t0,(a0)
80000632:	000302e7          	jalr	t0,t1
80000636:	00000597          	auipc	a1,0x0
8000063a:	01258593          	addi	a1,a1,18 # 80000648 <waitloop4+0x43c>
8000063e:	c10c                	sw	a1,0(a0)
80000640:	0055232f          	amoadd.w	t1,t0,(a0)
80000644:	000302e7          	jalr	t0,t1
80000648:	00000597          	auipc	a1,0x0
8000064c:	01258593          	addi	a1,a1,18 # 8000065a <waitloop4+0x44e>
80000650:	c10c                	sw	a1,0(a0)
80000652:	0055232f          	amoadd.w	t1,t0,(a0)
80000656:	000302e7          	jalr	t0,t1
8000065a:	00000597          	auipc	a1,0x0
8000065e:	01258593          	addi	a1,a1,18 # 8000066c <waitloop4+0x460>
80000662:	c10c                	sw	a1,0(a0)
80000664:	0055232f          	amoadd.w	t1,t0,(a0)
80000668:	000302e7          	jalr	t0,t1
8000066c:	00000597          	auipc	a1,0x0
80000670:	01258593          	addi	a1,a1,18 # 8000067e <waitloop4+0x472>
80000674:	c10c                	sw	a1,0(a0)
80000676:	0055232f          	amoadd.w	t1,t0,(a0)
8000067a:	000302e7          	jalr	t0,t1
8000067e:	00000597          	auipc	a1,0x0
80000682:	01658593          	addi	a1,a1,22 # 80000694 <waitloop4+0x488>
80000686:	c10c                	sw	a1,0(a0)
80000688:	10500073          	wfi
8000068c:	0055232f          	amoadd.w	t1,t0,(a0)
80000690:	000302e7          	jalr	t0,t1
80000694:	10500073          	wfi
80000698:	00000597          	auipc	a1,0x0
8000069c:	01258593          	addi	a1,a1,18 # 800006aa <waitloop4+0x49e>
800006a0:	c10c                	sw	a1,0(a0)
800006a2:	0055232f          	amoadd.w	t1,t0,(a0)
800006a6:	000302e7          	jalr	t0,t1
800006aa:	10500073          	wfi
800006ae:	0055232f          	amoadd.w	t1,t0,(a0)
800006b2:	10500073          	wfi
800006b6:	0055232f          	amoadd.w	t1,t0,(a0)
800006ba:	10500073          	wfi
800006be:	0055232f          	amoadd.w	t1,t0,(a0)
800006c2:	10500073          	wfi
800006c6:	0055232f          	amoadd.w	t1,t0,(a0)
800006ca:	10500073          	wfi
800006ce:	0055232f          	amoadd.w	t1,t0,(a0)
800006d2:	10500073          	wfi
800006d6:	0055232f          	amoadd.w	t1,t0,(a0)
800006da:	10500073          	wfi
800006de:	0055232f          	amoadd.w	t1,t0,(a0)
800006e2:	10500073          	wfi
800006e6:	0055232f          	amoadd.w	t1,t0,(a0)
800006ea:	10500073          	wfi
800006ee:	0055232f          	amoadd.w	t1,t0,(a0)
800006f2:	10500073          	wfi
800006f6:	0055232f          	amoadd.w	t1,t0,(a0)
800006fa:	10500073          	wfi
800006fe:	0055232f          	amoadd.w	t1,t0,(a0)
80000702:	10500073          	wfi
80000706:	0055232f          	amoadd.w	t1,t0,(a0)
8000070a:	10500073          	wfi
8000070e:	0055232f          	amoadd.w	t1,t0,(a0)
80000712:	10500073          	wfi
80000716:	0055232f          	amoadd.w	t1,t0,(a0)
8000071a:	10500073          	wfi
8000071e:	0055232f          	amoadd.w	t1,t0,(a0)
80000722:	10500073          	wfi
80000726:	0055232f          	amoadd.w	t1,t0,(a0)
8000072a:	10500073          	wfi
8000072e:	0055232f          	amoadd.w	t1,t0,(a0)
80000732:	10500073          	wfi
80000736:	0055232f          	amoadd.w	t1,t0,(a0)
8000073a:	10500073          	wfi
8000073e:	0055232f          	amoadd.w	t1,t0,(a0)
80000742:	10500073          	wfi
80000746:	0055232f          	amoadd.w	t1,t0,(a0)
8000074a:	10500073          	wfi
8000074e:	0055232f          	amoadd.w	t1,t0,(a0)
80000752:	10500073          	wfi
80000756:	0055232f          	amoadd.w	t1,t0,(a0)
8000075a:	10500073          	wfi
8000075e:	0055232f          	amoadd.w	t1,t0,(a0)
80000762:	10500073          	wfi
80000766:	0055232f          	amoadd.w	t1,t0,(a0)
8000076a:	10500073          	wfi
8000076e:	0055232f          	amoadd.w	t1,t0,(a0)
80000772:	10500073          	wfi
80000776:	0055232f          	amoadd.w	t1,t0,(a0)
8000077a:	10500073          	wfi
8000077e:	0055232f          	amoadd.w	t1,t0,(a0)
80000782:	10500073          	wfi
80000786:	0055232f          	amoadd.w	t1,t0,(a0)
8000078a:	10500073          	wfi
8000078e:	0055232f          	amoadd.w	t1,t0,(a0)
80000792:	10500073          	wfi
80000796:	0055232f          	amoadd.w	t1,t0,(a0)
8000079a:	10500073          	wfi
8000079e:	0055232f          	amoadd.w	t1,t0,(a0)
800007a2:	10500073          	wfi
800007a6:	0055232f          	amoadd.w	t1,t0,(a0)
800007aa:	10500073          	wfi
800007ae:	0055232f          	amoadd.w	t1,t0,(a0)
800007b2:	10500073          	wfi
800007b6:	0055232f          	amoadd.w	t1,t0,(a0)
800007ba:	00000317          	auipc	t1,0x0
800007be:	01630313          	addi	t1,t1,22 # 800007d0 <waitloop4+0x5c4>
800007c2:	4285                	li	t0,1
800007c4:	10500073          	wfi
800007c8:	02530333          	mul	t1,t1,t0
800007cc:	000302e7          	jalr	t0,t1
800007d0:	00000317          	auipc	t1,0x0
800007d4:	01230313          	addi	t1,t1,18 # 800007e2 <waitloop4+0x5d6>
800007d8:	4285                	li	t0,1
800007da:	02534333          	div	t1,t1,t0
800007de:	000302e7          	jalr	t0,t1
800007e2:	10500073          	wfi
800007e6:	00000317          	auipc	t1,0x0
800007ea:	01230313          	addi	t1,t1,18 # 800007f8 <waitloop4+0x5ec>
800007ee:	4285                	li	t0,1
800007f0:	02530333          	mul	t1,t1,t0
800007f4:	000302e7          	jalr	t0,t1
800007f8:	00000317          	auipc	t1,0x0
800007fc:	01630313          	addi	t1,t1,22 # 8000080e <waitloop4+0x602>
80000800:	4285                	li	t0,1
80000802:	10500073          	wfi
80000806:	02534333          	div	t1,t1,t0
8000080a:	000302e7          	jalr	t0,t1
8000080e:	00000317          	auipc	t1,0x0
80000812:	01230313          	addi	t1,t1,18 # 80000820 <waitloop4+0x614>
80000816:	4285                	li	t0,1
80000818:	02530333          	mul	t1,t1,t0
8000081c:	000302e7          	jalr	t0,t1
80000820:	00000317          	auipc	t1,0x0
80000824:	01230313          	addi	t1,t1,18 # 80000832 <waitloop4+0x626>
80000828:	4285                	li	t0,1
8000082a:	02534333          	div	t1,t1,t0
8000082e:	000302e7          	jalr	t0,t1
80000832:	00000317          	auipc	t1,0x0
80000836:	01630313          	addi	t1,t1,22 # 80000848 <waitloop4+0x63c>
8000083a:	10500073          	wfi
8000083e:	4285                	li	t0,1
80000840:	02530333          	mul	t1,t1,t0
80000844:	000302e7          	jalr	t0,t1
80000848:	10500073          	wfi
8000084c:	00000317          	auipc	t1,0x0
80000850:	01230313          	addi	t1,t1,18 # 8000085e <waitloop4+0x652>
80000854:	4285                	li	t0,1
80000856:	02534333          	div	t1,t1,t0
8000085a:	000302e7          	jalr	t0,t1
8000085e:	4185                	li	gp,1
80000860:	00301b63          	bne	zero,gp,80000876 <pass>

80000864 <fail>:
80000864:	0ff0000f          	fence
80000868:	00018063          	beqz	gp,80000868 <fail+0x4>
8000086c:	0186                	slli	gp,gp,0x1
8000086e:	0011e193          	ori	gp,gp,1
80000872:	00000073          	ecall

80000876 <pass>:
80000876:	0ff0000f          	fence
8000087a:	4185                	li	gp,1
8000087c:	00000073          	ecall
	...

Disassembly of section .tohost:

80001000 <tohost>:
	...

80001040 <fromhost>:
	...

Disassembly of section .data:

80002000 <test_trap_data>:
	...

80002008 <test_bpu_wait_data>:
	...

80002010 <begin_signature>:
80002010:	0000                	unimp
	...

80002014 <data2>:
	...

Disassembly of section .riscv.attributes:

00000000 <.riscv.attributes>:
   0:	3641                	jal	fffffb80 <_end+0x7fffdb60>
   2:	0000                	unimp
   4:	7200                	flw	fs0,32(a2)
   6:	7369                	lui	t1,0xffffa
   8:	01007663          	bgeu	zero,a6,14 <_start-0x7fffffec>
   c:	002c                	addi	a1,sp,8
   e:	0000                	unimp
  10:	7205                	lui	tp,0xfffe1
  12:	3376                	fld	ft6,376(sp)
  14:	6932                	flw	fs2,12(sp)
  16:	7032                	flw	ft0,44(sp)
  18:	5f30                	lw	a2,120(a4)
  1a:	326d                	jal	fffff9c4 <_end+0x7fffd9a4>
  1c:	3070                	fld	fa2,224(s0)
  1e:	615f 7032 5f30      	0x5f307032615f
  24:	3266                	fld	ft4,120(sp)
  26:	3070                	fld	fa2,224(s0)
  28:	645f 7032 5f30      	0x5f307032645f
  2e:	30703263          	0x30703263
  32:	0800                	addi	s0,sp,16
  34:	0a01                	addi	s4,s4,0
  36:	0b              	Address 0x0000000000000036 is out of bounds.

